target datalayout = "e-m:e-p270:32:32-p271:32:32-p272:64:64-i64:64-i128:128-f80:128-n8:16:32:64-S128"
target triple = "x86_64-pc-linux-gnu"

%struct.SDL_Renderer = type { ptr, ptr, ptr, ptr, ptr, ptr, ptr, ptr, ptr, ptr, ptr, ptr, ptr, ptr, ptr, ptr, ptr, ptr, ptr, ptr, ptr, ptr, ptr, ptr, ptr, ptr, ptr, ptr, ptr, ptr, i32, i8, ptr, i8, i8, i8, i64, i64, ptr, %struct.SDL_RenderViewState, %struct.SDL_FPoint, i32, i32, ptr, ptr, ptr, i32, float, float, float, float, %struct.SDL_FColor, i32, i32, i32, ptr, ptr, ptr, ptr, i32, %struct.SDL_FColor, float, %struct.SDL_Rect, %struct.SDL_Rect, i8, i8, i8, i8, ptr, i64, i64, i8, ptr, ptr, i32, ptr, i8, ptr, ptr }
%struct.SDL_RenderViewState = type { i32, i32, %struct.SDL_Rect, %struct.SDL_Rect, %struct.SDL_Rect, %struct.SDL_Rect, i8, %struct.SDL_FPoint, i32, i32, i32, %struct.SDL_FRect, %struct.SDL_FRect, %struct.SDL_FPoint, %struct.SDL_FPoint, %struct.SDL_FPoint }
%struct.SDL_FRect = type { float, float, float, float }
%struct.SDL_FPoint = type { float, float }
%struct.SDL_FColor = type { float, float, float, float }
%struct.SDL_Rect = type { i32, i32, i32, i32 }
%struct.GLES2_RenderData = type { ptr, i8, i8, i8, ptr, ptr, ptr, ptr, ptr, ptr, ptr, ptr, ptr, ptr, ptr, ptr, ptr, ptr, ptr, ptr, ptr, ptr, ptr, ptr, ptr, ptr, ptr, ptr, ptr, ptr, ptr, ptr, ptr, ptr, ptr, ptr, ptr, ptr, ptr, ptr, ptr, ptr, ptr, ptr, ptr, ptr, ptr, ptr, ptr, ptr, ptr, ptr, ptr, ptr, ptr, ptr, ptr, ptr, ptr, ptr, ptr, ptr, i32, [16 x i32], %struct.GLES2_ProgramCache, i8, i8, i8, i8, %struct.GLES2_DrawStateCache, i32 }
%struct.GLES2_ProgramCache = type { i32, ptr, ptr }
%struct.GLES2_DrawStateCache = type { %struct.SDL_Rect, i8, ptr, ptr, i32, i8, i8, i8, %struct.SDL_Rect, i8, i8, %struct.SDL_FColor, i8, i32, i32, ptr, ptr, [4 x [4 x float]] }

; Function Attrs: nounwind uwtable
define internal i32 @GetBlendEquation(i32 noundef %0) #0 {
  %2 = alloca i32, align 4
  %3 = alloca i32, align 4
  store i32 %0, ptr %3, align 4
  %4 = load i32, ptr %3, align 4
  switch i32 %4, label %10 [
    i32 1, label %5
    i32 2, label %6
    i32 3, label %7
    i32 4, label %8
    i32 5, label %9
  ]

5:                                                ; preds = %1
  store i32 32774, ptr %2, align 4
  br label %11

6:                                                ; preds = %1
  store i32 32778, ptr %2, align 4
  br label %11

7:                                                ; preds = %1
  store i32 32779, ptr %2, align 4
  br label %11

8:                                                ; preds = %1
  store i32 32775, ptr %2, align 4
  br label %11

9:                                                ; preds = %1
  store i32 32776, ptr %2, align 4
  br label %11

10:                                               ; preds = %1
  store i32 1280, ptr %2, align 4
  br label %11

11:                                               ; preds = %10, %9, %8, %7, %6, %5
  %12 = load i32, ptr %2, align 4
  ret i32 %12
}

; Function Attrs: nounwind uwtable
define internal i32 @GetBlendFunc(i32 noundef %0) #0 {
  %2 = alloca i32, align 4
  %3 = alloca i32, align 4
  store i32 %0, ptr %3, align 4
  %4 = load i32, ptr %3, align 4
  switch i32 %4, label %15 [
    i32 1, label %5
    i32 2, label %6
    i32 3, label %7
    i32 4, label %8
    i32 5, label %9
    i32 6, label %10
    i32 7, label %11
    i32 8, label %12
    i32 9, label %13
    i32 10, label %14
  ]

5:                                                ; preds = %1
  store i32 0, ptr %2, align 4
  br label %16

6:                                                ; preds = %1
  store i32 1, ptr %2, align 4
  br label %16

7:                                                ; preds = %1
  store i32 768, ptr %2, align 4
  br label %16

8:                                                ; preds = %1
  store i32 769, ptr %2, align 4
  br label %16

9:                                                ; preds = %1
  store i32 770, ptr %2, align 4
  br label %16

10:                                               ; preds = %1
  store i32 771, ptr %2, align 4
  br label %16

11:                                               ; preds = %1
  store i32 774, ptr %2, align 4
  br label %16

12:                                               ; preds = %1
  store i32 775, ptr %2, align 4
  br label %16

13:                                               ; preds = %1
  store i32 772, ptr %2, align 4
  br label %16

14:                                               ; preds = %1
  store i32 773, ptr %2, align 4
  br label %16

15:                                               ; preds = %1
  store i32 1280, ptr %2, align 4
  br label %16

16:                                               ; preds = %15, %14, %13, %12, %11, %10, %9, %8, %7, %6, %5
  %17 = load i32, ptr %2, align 4
  ret i32 %17
}

; Function Attrs: nounwind uwtable
define internal zeroext i1 @GLES2_SupportsBlendMode(ptr noundef %0, i32 noundef %1) #0 {
  %3 = alloca i1, align 1
  %4 = alloca ptr, align 8
  %5 = alloca i32, align 4
  %6 = alloca ptr, align 8
  %7 = alloca i32, align 4
  %8 = alloca i32, align 4
  %9 = alloca i32, align 4
  %10 = alloca i32, align 4
  %11 = alloca i32, align 4
  %12 = alloca i32, align 4
  %13 = alloca i32, align 4
  store ptr %0, ptr %4, align 8
  store i32 %1, ptr %5, align 4
  call void @llvm.lifetime.start.p0(i64 8, ptr %6) #6
  %14 = load ptr, ptr %4, align 8
  %15 = getelementptr inbounds nuw %struct.SDL_Renderer, ptr %14, i32 0, i32 77
  %16 = load ptr, ptr %15, align 8
  store ptr %16, ptr %6, align 8
  call void @llvm.lifetime.start.p0(i64 4, ptr %7) #6
  %17 = load i32, ptr %5, align 4
  %18 = call i32 @SDL_GetBlendModeSrcColorFactor(i32 noundef %17)
  store i32 %18, ptr %7, align 4
  call void @llvm.lifetime.start.p0(i64 4, ptr %8) #6
  %19 = load i32, ptr %5, align 4
  %20 = call i32 @SDL_GetBlendModeSrcAlphaFactor(i32 noundef %19)
  store i32 %20, ptr %8, align 4
  call void @llvm.lifetime.start.p0(i64 4, ptr %9) #6
  %21 = load i32, ptr %5, align 4
  %22 = call i32 @SDL_GetBlendModeColorOperation(i32 noundef %21)
  store i32 %22, ptr %9, align 4
  call void @llvm.lifetime.start.p0(i64 4, ptr %10) #6
  %23 = load i32, ptr %5, align 4
  %24 = call i32 @SDL_GetBlendModeDstColorFactor(i32 noundef %23)
  store i32 %24, ptr %10, align 4
  call void @llvm.lifetime.start.p0(i64 4, ptr %11) #6
  %25 = load i32, ptr %5, align 4
  %26 = call i32 @SDL_GetBlendModeDstAlphaFactor(i32 noundef %25)
  store i32 %26, ptr %11, align 4
  call void @llvm.lifetime.start.p0(i64 4, ptr %12) #6
  %27 = load i32, ptr %5, align 4
  %28 = call i32 @SDL_GetBlendModeAlphaOperation(i32 noundef %27)
  store i32 %28, ptr %12, align 4
  %29 = load i32, ptr %7, align 4
  %30 = call i32 @GetBlendFunc(i32 noundef %29)
  %31 = icmp eq i32 %30, 1280
  br i1 %31, label %52, label %32

32:                                               ; preds = %2
  %33 = load i32, ptr %8, align 4
  %34 = call i32 @GetBlendFunc(i32 noundef %33)
  %35 = icmp eq i32 %34, 1280
  br i1 %35, label %52, label %36

36:                                               ; preds = %32
  %37 = load i32, ptr %9, align 4
  %38 = call i32 @GetBlendEquation(i32 noundef %37)
  %39 = icmp eq i32 %38, 1280
  br i1 %39, label %52, label %40

40:                                               ; preds = %36
  %41 = load i32, ptr %10, align 4
  %42 = call i32 @GetBlendFunc(i32 noundef %41)
  %43 = icmp eq i32 %42, 1280
  br i1 %43, label %52, label %44

44:                                               ; preds = %40
  %45 = load i32, ptr %11, align 4
  %46 = call i32 @GetBlendFunc(i32 noundef %45)
  %47 = icmp eq i32 %46, 1280
  br i1 %47, label %52, label %48

48:                                               ; preds = %44
  %49 = load i32, ptr %12, align 4
  %50 = call i32 @GetBlendEquation(i32 noundef %49)
  %51 = icmp eq i32 %50, 1280
  br i1 %51, label %52, label %53

52:                                               ; preds = %48, %44, %40, %36, %32, %2
  store i1 false, ptr %3, align 1
  store i32 1, ptr %13, align 4
  br label %72

53:                                               ; preds = %48
  %54 = load i32, ptr %9, align 4
  %55 = icmp eq i32 %54, 4
  br i1 %55, label %56, label %62

56:                                               ; preds = %53
  %57 = load ptr, ptr %6, align 8
  %58 = getelementptr inbounds nuw %struct.GLES2_RenderData, ptr %57, i32 0, i32 3
  %59 = load i8, ptr %58, align 2, !range !3, !noundef !4
  %60 = trunc i8 %59 to i1
  br i1 %60, label %62, label %61

61:                                               ; preds = %56
  store i1 false, ptr %3, align 1
  store i32 1, ptr %13, align 4
  br label %72

62:                                               ; preds = %56, %53
  %63 = load i32, ptr %9, align 4
  %64 = icmp eq i32 %63, 5
  br i1 %64, label %65, label %71

65:                                               ; preds = %62
  %66 = load ptr, ptr %6, align 8
  %67 = getelementptr inbounds nuw %struct.GLES2_RenderData, ptr %66, i32 0, i32 3
  %68 = load i8, ptr %67, align 2, !range !3, !noundef !4
  %69 = trunc i8 %68 to i1
  br i1 %69, label %71, label %70

70:                                               ; preds = %65
  store i1 false, ptr %3, align 1
  store i32 1, ptr %13, align 4
  br label %72

71:                                               ; preds = %65, %62
  store i1 true, ptr %3, align 1
  store i32 1, ptr %13, align 4
  br label %72

72:                                               ; preds = %71, %70, %61, %52
  call void @llvm.lifetime.end.p0(i64 4, ptr %12) #6
  call void @llvm.lifetime.end.p0(i64 4, ptr %11) #6
  call void @llvm.lifetime.end.p0(i64 4, ptr %10) #6
  call void @llvm.lifetime.end.p0(i64 4, ptr %9) #6
  call void @llvm.lifetime.end.p0(i64 4, ptr %8) #6
  call void @llvm.lifetime.end.p0(i64 4, ptr %7) #6
  call void @llvm.lifetime.end.p0(i64 8, ptr %6) #6
  %73 = load i1, ptr %3, align 1
  ret i1 %73
}