; Function Attrs: nounwind uwtable
define internal noundef zeroext i1 @GLES2_SupportsBlendMode(ptr noundef readonly captures(none) %0, i32 noundef %1) #0 {
  %3 = getelementptr inbounds nuw i8, ptr %0, i64 696
  %4 = load ptr, ptr %3, align 8
  %5 = tail call i32 @SDL_GetBlendModeSrcColorFactor(i32 noundef %1) #10
  %6 = tail call i32 @SDL_GetBlendModeSrcAlphaFactor(i32 noundef %1) #10
  %7 = tail call i32 @SDL_GetBlendModeColorOperation(i32 noundef %1) #10
  %8 = tail call i32 @SDL_GetBlendModeDstColorFactor(i32 noundef %1) #10
  %9 = tail call i32 @SDL_GetBlendModeDstAlphaFactor(i32 noundef %1) #10
  %10 = tail call i32 @SDL_GetBlendModeAlphaOperation(i32 noundef %1) #10
  %.off = add i32 %5, -1
  %switch = icmp ult i32 %.off, 10
  %.off32 = add i32 %6, -1
  %switch33 = icmp ult i32 %.off32, 10
  %or.cond = select i1 %switch, i1 %switch33, i1 false
  %.off34 = add i32 %7, -1
  %switch35 = icmp ult i32 %.off34, 5
  %or.cond36 = select i1 %or.cond, i1 %switch35, i1 false
  %.off37 = add i32 %8, -1
  %switch38 = icmp ult i32 %.off37, 10
  %or.cond39 = select i1 %or.cond36, i1 %switch38, i1 false
  %.off40 = add i32 %9, -1
  %switch41 = icmp ult i32 %.off40, 10
  %or.cond42 = select i1 %or.cond39, i1 %switch41, i1 false
  %.off43 = add i32 %10, -1
  %switch44 = icmp ult i32 %.off43, 5
  %or.cond45 = select i1 %or.cond42, i1 %switch44, i1 false
  br i1 %or.cond45, label %11, label %GetBlendFunc.exit

11:                                               ; preds = %2
  switch i32 %7, label %20 [
    i32 4, label %12
    i32 5, label %16
  ]

12:                                               ; preds = %11
  %13 = getelementptr inbounds nuw i8, ptr %4, i64 10
  %14 = load i8, ptr %13, align 2, !range !5, !noundef !6
  %15 = trunc nuw i8 %14 to i1
  br i1 %15, label %20, label %GetBlendFunc.exit

16:                                               ; preds = %11
  %17 = getelementptr inbounds nuw i8, ptr %4, i64 10
  %18 = load i8, ptr %17, align 2, !range !5, !noundef !6
  %19 = trunc nuw i8 %18 to i1
  br i1 %19, label %20, label %GetBlendFunc.exit

20:                                               ; preds = %12, %11, %16
  br label %GetBlendFunc.exit

GetBlendFunc.exit:                                ; preds = %2, %16, %12, %20
  %.0 = phi i1 [ true, %20 ], [ false, %12 ], [ false, %16 ], [ false, %2 ]
  ret i1 %.0
}